; ModuleID = 'source-C-CXX/6/283.c'
source_filename = "source-C-CXX/6/283.c"
target datalayout = "e-m:e-p270:32:32-p271:32:32-p272:64:64-i64:64-f80:128-n8:16:32:64-S128"
target triple = "x86_64-pc-linux-gnu"

; Function Attrs: nounwind sspstrong uwtable
define dso_local i32 @main() local_unnamed_addr #0 {
  %1 = alloca [256 x i8], align 16
  %2 = alloca [256 x i8], align 16
  %3 = alloca [256 x i8], align 16
  %4 = getelementptr inbounds [256 x i8], [256 x i8]* %3, i64 0, i64 0
  %5 = alloca [256 x i8], align 16
  %6 = getelementptr inbounds [256 x i8], [256 x i8]* %5, i64 0, i64 0
  %7 = getelementptr inbounds [256 x i8], [256 x i8]* %1, i64 0, i64 0
  call void @llvm.lifetime.start.p0i8(i64 256, i8* nonnull %7) #6
  %8 = getelementptr inbounds [256 x i8], [256 x i8]* %2, i64 0, i64 0
  call void @llvm.lifetime.start.p0i8(i64 256, i8* nonnull %8) #6
  %9 = getelementptr inbounds [256 x i8], [256 x i8]* %3, i64 0, i64 0
  call void @llvm.lifetime.start.p0i8(i64 256, i8* nonnull %9) #6
  %10 = getelementptr inbounds [256 x i8], [256 x i8]* %5, i64 0, i64 0
  call void @llvm.lifetime.start.p0i8(i64 256, i8* nonnull %10) #6
  %11 = call i32 (i8*, ...) bitcast (i32 (...)* @gets to i32 (i8*, ...)*)(i8* nonnull %7) #6
  %12 = call i32 (i8*, ...) bitcast (i32 (...)* @gets to i32 (i8*, ...)*)(i8* nonnull %8) #6
  %13 = call i32 (i8*, ...) bitcast (i32 (...)* @gets to i32 (i8*, ...)*)(i8* nonnull %9) #6
  %14 = call i64 @strlen(i8* noundef nonnull %7) #7
  %15 = trunc i64 %14 to i32
  %16 = call i64 @strlen(i8* noundef nonnull %8) #7
  %17 = icmp sgt i32 %15, 0
  br i1 %17, label %18, label %39

18:                                               ; preds = %0
  %19 = trunc i64 %16 to i32
  %20 = icmp sgt i32 %19, 0
  br i1 %20, label %21, label %39

21:                                               ; preds = %18
  %22 = and i64 %16, 4294967295
  %23 = and i64 %14, 4294967295
  br label %24

24:                                               ; preds = %21, %30
  %25 = phi i64 [ 0, %21 ], [ %32, %30 ]
  %26 = phi i32 [ 0, %21 ], [ %31, %30 ]
  %27 = getelementptr [256 x i8], [256 x i8]* %1, i64 0, i64 %25
  call void @llvm.memcpy.p0i8.p0i8.i64(i8* nonnull align 16 %6, i8* align 1 %27, i64 %22, i1 false)
  %28 = call i32 @strcmp(i8* noundef nonnull %10, i8* noundef nonnull %8) #7
  %29 = icmp eq i32 %28, 0
  br i1 %29, label %34, label %30

30:                                               ; preds = %24
  %31 = add nuw nsw i32 %26, 1
  %32 = add nuw nsw i64 %25, 1
  %33 = icmp eq i64 %32, %23
  br i1 %33, label %39, label %24, !llvm.loop !5

34:                                               ; preds = %24
  br i1 %20, label %35, label %39

35:                                               ; preds = %34
  %36 = zext i32 %26 to i64
  %37 = getelementptr [256 x i8], [256 x i8]* %1, i64 0, i64 %36
  %38 = and i64 %16, 4294967295
  call void @llvm.memcpy.p0i8.p0i8.i64(i8* align 1 %37, i8* nonnull align 16 %4, i64 %38, i1 false)
  br label %39

39:                                               ; preds = %30, %18, %35, %0, %34
  %40 = call i32 @puts(i8* nonnull %7)
  call void @llvm.lifetime.end.p0i8(i64 256, i8* nonnull %10) #6
  call void @llvm.lifetime.end.p0i8(i64 256, i8* nonnull %9) #6
  call void @llvm.lifetime.end.p0i8(i64 256, i8* nonnull %8) #6
  call void @llvm.lifetime.end.p0i8(i64 256, i8* nonnull %7) #6
  ret i32 0
}

; Function Attrs: argmemonly mustprogress nofree nosync nounwind willreturn
declare void @llvm.lifetime.start.p0i8(i64 immarg, i8* nocapture) #1

declare i32 @gets(...) local_unnamed_addr #2

; Function Attrs: argmemonly mustprogress nofree nounwind readonly willreturn
declare i64 @strlen(i8* nocapture) local_unnamed_addr #3

; Function Attrs: argmemonly mustprogress nofree nounwind readonly willreturn
declare i32 @strcmp(i8* nocapture, i8* nocapture) local_unnamed_addr #3

; Function Attrs: nofree nounwind
declare noundef i32 @puts(i8* nocapture noundef readonly) local_unnamed_addr #4

; Function Attrs: argmemonly mustprogress nofree nosync nounwind willreturn
declare void @llvm.lifetime.end.p0i8(i64 immarg, i8* nocapture) #1

; Function Attrs: argmemonly nofree nounwind willreturn
declare void @llvm.memcpy.p0i8.p0i8.i64(i8* noalias nocapture writeonly, i8* noalias nocapture readonly, i64, i1 immarg) #5


!llvm.module.flags = !{!0, !1, !2, !3}
!llvm.ident = !{!4}

!0 = !{i32 1, !"wchar_size", i32 4}
!1 = !{i32 7, !"PIC Level", i32 2}
!2 = !{i32 7, !"PIE Level", i32 2}
!3 = !{i32 7, !"uwtable", i32 1}
!4 = !{!"clang version 13.0.0"}
!5 = distinct !{!5, !6}
!6 = !{!"llvm.loop.mustprogress"}
